target datalayout = "e-m:e-p270:32:32-p271:32:32-p272:64:64-i64:64-i128:128-f80:128-n8:16:32:64-S128"
target triple = "x86_64-pc-linux-gnu"

%struct.SDL_DriverXboxOne_Context = type { ptr, i16, i16, i32, i64, i8, i64, i8, i8, i8, i8, i8, i8, i8, i8, i8, i8, i8, i32, i64, i8, [64 x i8], ptr, i32 }
%struct.SDL_HIDAPI_Device = type { ptr, ptr, ptr, ptr, i16, i16, i16, ptr, %struct.SDL_GUID, i32, i32, i32, i32, i16, i16, i8, i32, i32, i32, ptr, ptr, ptr, ptr, %struct.SDL_AtomicInt, i32, ptr, i8, i8, i8, ptr, i32, ptr, ptr }
%struct.SDL_GUID = type { [16 x i8] }
%struct.SDL_AtomicInt = type { i32 }

; Function Attrs: nounwind uwtable
define internal zeroext i1 @ControllerSendsAnnouncement(i16 noundef zeroext %0, i16 noundef zeroext %1) #0 {
  %3 = alloca i1, align 1
  %4 = alloca i16, align 2
  %5 = alloca i16, align 2
  store i16 %0, ptr %4, align 2
  store i16 %1, ptr %5, align 2
  %6 = load i16, ptr %4, align 2
  %7 = zext i16 %6 to i32
  %8 = icmp eq i32 %7, 3695
  br i1 %8, label %9, label %14

9:                                                ; preds = %2
  %10 = load i16, ptr %5, align 2
  %11 = zext i16 %10 to i32
  %12 = icmp eq i32 %11, 582
  br i1 %12, label %13, label %14

13:                                               ; preds = %9
  store i1 false, ptr %3, align 1
  br label %15

14:                                               ; preds = %9, %2
  store i1 true, ptr %3, align 1
  br label %15

15:                                               ; preds = %14, %13
  %16 = load i1, ptr %3, align 1
  ret i1 %16
}

; Function Attrs: nounwind uwtable
define internal zeroext i1 @ControllerHasShareButton(i16 noundef zeroext %0, i16 noundef zeroext %1) #0 {
  %3 = alloca i16, align 2
  %4 = alloca i16, align 2
  store i16 %0, ptr %3, align 2
  store i16 %1, ptr %4, align 2
  %5 = load i16, ptr %3, align 2
  %6 = load i16, ptr %4, align 2
  %7 = call zeroext i1 @SDL_IsJoystickXboxSeriesX(i16 noundef zeroext %5, i16 noundef zeroext %6)
  ret i1 %7
}

; Function Attrs: nounwind uwtable
define internal zeroext i1 @ControllerHasTriggerRumble(i16 noundef zeroext %0, i16 noundef zeroext %1) #0 {
  %3 = alloca i1, align 1
  %4 = alloca i16, align 2
  %5 = alloca i16, align 2
  store i16 %0, ptr %4, align 2
  store i16 %1, ptr %5, align 2
  %6 = load i16, ptr %4, align 2
  %7 = zext i16 %6 to i32
  %8 = icmp eq i32 %7, 1118
  br i1 %8, label %9, label %10

9:                                                ; preds = %2
  store i1 true, ptr %3, align 1
  br label %11

10:                                               ; preds = %2
  store i1 false, ptr %3, align 1
  br label %11

11:                                               ; preds = %10, %9
  %12 = load i1, ptr %3, align 1
  ret i1 %12
}

; Function Attrs: nounwind uwtable
define internal zeroext i1 @ControllerHasPaddles(i16 noundef zeroext %0, i16 noundef zeroext %1) #0 {
  %3 = alloca i16, align 2
  %4 = alloca i16, align 2
  store i16 %0, ptr %3, align 2
  store i16 %1, ptr %4, align 2
  %5 = load i16, ptr %3, align 2
  %6 = load i16, ptr %4, align 2
  %7 = call zeroext i1 @SDL_IsJoystickXboxOneElite(i16 noundef zeroext %5, i16 noundef zeroext %6)
  ret i1 %7
}

; Function Attrs: nounwind uwtable
define internal zeroext i1 @ControllerHasColorLED(i16 noundef zeroext %0, i16 noundef zeroext %1) #0 {
  %3 = alloca i16, align 2
  %4 = alloca i16, align 2
  store i16 %0, ptr %3, align 2
  store i16 %1, ptr %4, align 2
  %5 = load i16, ptr %3, align 2
  %6 = zext i16 %5 to i32
  %7 = icmp eq i32 %6, 1118
  br i1 %7, label %8, label %12

8:                                                ; preds = %2
  %9 = load i16, ptr %4, align 2
  %10 = zext i16 %9 to i32
  %11 = icmp eq i32 %10, 2816
  br label %12

12:                                               ; preds = %8, %2
  %13 = phi i1 [ false, %2 ], [ %11, %8 ]
  ret i1 %13
}

; Function Attrs: nounwind uwtable
define internal zeroext i1 @HIDAPI_DriverXboxOne_InitDevice(ptr noundef %0) #0 {
  %2 = alloca i1, align 1
  %3 = alloca ptr, align 8
  %4 = alloca ptr, align 8
  %5 = alloca i32, align 4
  store ptr %0, ptr %3, align 8
  call void @llvm.lifetime.start.p0(i64 8, ptr %4) #6
  %6 = call noalias ptr @SDL_calloc_REAL(i64 noundef 1, i64 noundef 152) #7
  store ptr %6, ptr %4, align 8
  %7 = load ptr, ptr %4, align 8
  %8 = icmp ne ptr %7, null
  br i1 %8, label %10, label %9

9:                                                ; preds = %1
  store i1 false, ptr %2, align 1
  store i32 1, ptr %5, align 4
  br label %90

10:                                               ; preds = %1
  %11 = load ptr, ptr %3, align 8
  %12 = load ptr, ptr %4, align 8
  %13 = getelementptr inbounds nuw %struct.SDL_DriverXboxOne_Context, ptr %12, i32 0, i32 0
  store ptr %11, ptr %13, align 8
  %14 = load ptr, ptr %4, align 8
  %15 = load ptr, ptr %3, align 8
  %16 = getelementptr inbounds nuw %struct.SDL_HIDAPI_Device, ptr %15, i32 0, i32 20
  store ptr %14, ptr %16, align 8
  %17 = load ptr, ptr %3, align 8
  %18 = getelementptr inbounds nuw %struct.SDL_HIDAPI_Device, ptr %17, i32 0, i32 4
  %19 = load i16, ptr %18, align 8
  %20 = load ptr, ptr %4, align 8
  %21 = getelementptr inbounds nuw %struct.SDL_DriverXboxOne_Context, ptr %20, i32 0, i32 1
  store i16 %19, ptr %21, align 8
  %22 = load ptr, ptr %3, align 8
  %23 = getelementptr inbounds nuw %struct.SDL_HIDAPI_Device, ptr %22, i32 0, i32 5
  %24 = load i16, ptr %23, align 2
  %25 = load ptr, ptr %4, align 8
  %26 = getelementptr inbounds nuw %struct.SDL_DriverXboxOne_Context, ptr %25, i32 0, i32 2
  store i16 %24, ptr %26, align 2
  %27 = call i64 @SDL_GetTicks_REAL()
  %28 = load ptr, ptr %4, align 8
  %29 = getelementptr inbounds nuw %struct.SDL_DriverXboxOne_Context, ptr %28, i32 0, i32 4
  store i64 %27, ptr %29, align 8
  %30 = load ptr, ptr %4, align 8
  %31 = getelementptr inbounds nuw %struct.SDL_DriverXboxOne_Context, ptr %30, i32 0, i32 5
  store i8 0, ptr %31, align 8
  %32 = load ptr, ptr %4, align 8
  %33 = getelementptr inbounds nuw %struct.SDL_DriverXboxOne_Context, ptr %32, i32 0, i32 1
  %34 = load i16, ptr %33, align 8
  %35 = load ptr, ptr %4, align 8
  %36 = getelementptr inbounds nuw %struct.SDL_DriverXboxOne_Context, ptr %35, i32 0, i32 2
  %37 = load i16, ptr %36, align 2
  %38 = call zeroext i1 @ControllerHasColorLED(i16 noundef zeroext %34, i16 noundef zeroext %37)
  %39 = load ptr, ptr %4, align 8
  %40 = getelementptr inbounds nuw %struct.SDL_DriverXboxOne_Context, ptr %39, i32 0, i32 8
  %41 = zext i1 %38 to i8
  store i8 %41, ptr %40, align 1
  %42 = load ptr, ptr %4, align 8
  %43 = getelementptr inbounds nuw %struct.SDL_DriverXboxOne_Context, ptr %42, i32 0, i32 1
  %44 = load i16, ptr %43, align 8
  %45 = load ptr, ptr %4, align 8
  %46 = getelementptr inbounds nuw %struct.SDL_DriverXboxOne_Context, ptr %45, i32 0, i32 2
  %47 = load i16, ptr %46, align 2
  %48 = call zeroext i1 @ControllerHasPaddles(i16 noundef zeroext %44, i16 noundef zeroext %47)
  %49 = load ptr, ptr %4, align 8
  %50 = getelementptr inbounds nuw %struct.SDL_DriverXboxOne_Context, ptr %49, i32 0, i32 9
  %51 = zext i1 %48 to i8
  store i8 %51, ptr %50, align 2
  %52 = load ptr, ptr %4, align 8
  %53 = getelementptr inbounds nuw %struct.SDL_DriverXboxOne_Context, ptr %52, i32 0, i32 1
  %54 = load i16, ptr %53, align 8
  %55 = load ptr, ptr %4, align 8
  %56 = getelementptr inbounds nuw %struct.SDL_DriverXboxOne_Context, ptr %55, i32 0, i32 2
  %57 = load i16, ptr %56, align 2
  %58 = call zeroext i1 @ControllerHasTriggerRumble(i16 noundef zeroext %54, i16 noundef zeroext %57)
  %59 = load ptr, ptr %4, align 8
  %60 = getelementptr inbounds nuw %struct.SDL_DriverXboxOne_Context, ptr %59, i32 0, i32 11
  %61 = zext i1 %58 to i8
  store i8 %61, ptr %60, align 4
  %62 = load ptr, ptr %4, align 8
  %63 = getelementptr inbounds nuw %struct.SDL_DriverXboxOne_Context, ptr %62, i32 0, i32 1
  %64 = load i16, ptr %63, align 8
  %65 = load ptr, ptr %4, align 8
  %66 = getelementptr inbounds nuw %struct.SDL_DriverXboxOne_Context, ptr %65, i32 0, i32 2
  %67 = load i16, ptr %66, align 2
  %68 = call zeroext i1 @ControllerHasShareButton(i16 noundef zeroext %64, i16 noundef zeroext %67)
  %69 = load ptr, ptr %4, align 8
  %70 = getelementptr inbounds nuw %struct.SDL_DriverXboxOne_Context, ptr %69, i32 0, i32 12
  %71 = zext i1 %68 to i8
  store i8 %71, ptr %70, align 1
  %72 = load ptr, ptr %3, align 8
  %73 = getelementptr inbounds nuw %struct.SDL_HIDAPI_Device, ptr %72, i32 0, i32 4
  %74 = load i16, ptr %73, align 8
  %75 = load ptr, ptr %3, align 8
  %76 = getelementptr inbounds nuw %struct.SDL_HIDAPI_Device, ptr %75, i32 0, i32 5
  %77 = load i16, ptr %76, align 2
  %78 = call zeroext i1 @ControllerSendsAnnouncement(i16 noundef zeroext %74, i16 noundef zeroext %77)
  br i1 %78, label %82, label %79

79:                                               ; preds = %10
  %80 = load ptr, ptr %4, align 8
  %81 = getelementptr inbounds nuw %struct.SDL_DriverXboxOne_Context, ptr %80, i32 0, i32 3
  store i32 2, ptr %81, align 4
  br label %85

82:                                               ; preds = %10
  %83 = load ptr, ptr %4, align 8
  %84 = getelementptr inbounds nuw %struct.SDL_DriverXboxOne_Context, ptr %83, i32 0, i32 3
  store i32 4, ptr %84, align 4
  br label %85

85:                                               ; preds = %82, %79
  %86 = load ptr, ptr %3, align 8
  %87 = getelementptr inbounds nuw %struct.SDL_HIDAPI_Device, ptr %86, i32 0, i32 17
  store i32 3, ptr %87, align 4
  %88 = load ptr, ptr %3, align 8
  %89 = call zeroext i1 @HIDAPI_JoystickConnected(ptr noundef %88, ptr noundef null)
  store i1 %89, ptr %2, align 1
  store i32 1, ptr %5, align 4
  br label %90

90:                                               ; preds = %85, %9
  call void @llvm.lifetime.end.p0(i64 8, ptr %4) #6
  %91 = load i1, ptr %2, align 1
  ret i1 %91
}