; Function Attrs: nounwind uwtable
define internal zeroext i1 @HIDAPI_DriverXboxOne_InitDevice(ptr noundef %0) #0 {
  %2 = tail call noalias dereferenceable_or_null(152) ptr @SDL_calloc_REAL(i64 noundef 1, i64 noundef 152) #10
  %.not = icmp eq ptr %2, null
  br i1 %.not, label %39, label %3

3:                                                ; preds = %1
  store ptr %0, ptr %2, align 8
  %4 = getelementptr inbounds nuw i8, ptr %0, i64 112
  store ptr %2, ptr %4, align 8
  %5 = getelementptr inbounds nuw i8, ptr %0, i64 32
  %6 = load i16, ptr %5, align 8
  %7 = getelementptr inbounds nuw i8, ptr %2, i64 8
  store i16 %6, ptr %7, align 8
  %8 = getelementptr inbounds nuw i8, ptr %0, i64 34
  %9 = load i16, ptr %8, align 2
  %10 = getelementptr inbounds nuw i8, ptr %2, i64 10
  store i16 %9, ptr %10, align 2
  %11 = tail call i64 @SDL_GetTicks_REAL() #9
  %12 = getelementptr inbounds nuw i8, ptr %2, i64 16
  store i64 %11, ptr %12, align 8
  %13 = getelementptr inbounds nuw i8, ptr %2, i64 24
  store i8 0, ptr %13, align 8
  %14 = load i16, ptr %7, align 8
  %15 = load i16, ptr %10, align 2
  %16 = icmp eq i16 %14, 1118
  %17 = icmp eq i16 %15, 2816
  %18 = and i1 %16, %17
  %19 = getelementptr inbounds nuw i8, ptr %2, i64 41
  %20 = zext i1 %18 to i8
  store i8 %20, ptr %19, align 1
  %21 = tail call zeroext i1 @SDL_IsJoystickXboxOneElite(i16 noundef zeroext %14, i16 noundef zeroext %15) #9
  %22 = getelementptr inbounds nuw i8, ptr %2, i64 42
  %23 = zext i1 %21 to i8
  store i8 %23, ptr %22, align 2
  %24 = load i16, ptr %7, align 8
  %25 = icmp eq i16 %24, 1118
  %26 = getelementptr inbounds nuw i8, ptr %2, i64 44
  %27 = zext i1 %25 to i8
  store i8 %27, ptr %26, align 4
  %28 = load i16, ptr %10, align 2
  %29 = tail call zeroext i1 @SDL_IsJoystickXboxSeriesX(i16 noundef zeroext %24, i16 noundef zeroext %28) #9
  %30 = getelementptr inbounds nuw i8, ptr %2, i64 45
  %31 = zext i1 %29 to i8
  store i8 %31, ptr %30, align 1
  %32 = load i16, ptr %5, align 8
  %33 = load i16, ptr %8, align 2
  %34 = icmp ne i16 %32, 3695
  %35 = icmp ne i16 %33, 582
  %or.cond.not.i = or i1 %34, %35
  %spec.select = select i1 %or.cond.not.i, i32 4, i32 2
  %36 = getelementptr inbounds nuw i8, ptr %2, i64 12
  store i32 %spec.select, ptr %36, align 4
  %37 = getelementptr inbounds nuw i8, ptr %0, i64 92
  store i32 3, ptr %37, align 4
  %38 = tail call zeroext i1 @HIDAPI_JoystickConnected(ptr noundef nonnull %0, ptr noundef null) #9
  br label %39

39:                                               ; preds = %1, %3
  %.0 = phi i1 [ %38, %3 ], [ false, %1 ]
  ret i1 %.0
}